; Function Attrs: nofree norecurse nosync nounwind memory(argmem: read) uwtable
define i32 @Extra_TruthSupportSize(ptr noundef readonly captures(none) %0, i32 noundef %1) local_unnamed_addr #4 {
  %3 = icmp sgt i32 %1, 0
  br i1 %3, label %.lr.ph, label %._crit_edge

.lr.ph:                                           ; preds = %2, %.lr.ph
  %.010 = phi i32 [ %5, %.lr.ph ], [ 0, %2 ]
  %.079 = phi i32 [ %6, %.lr.ph ], [ 0, %2 ]
  %4 = tail call i32 @Extra_TruthVarInSupport(ptr noundef %0, i32 noundef %1, i32 noundef %.079)
  %5 = add nuw nsw i32 %4, %.010
  %6 = add nuw nsw i32 %.079, 1
  %exitcond.not = icmp eq i32 %6, %1
  br i1 %exitcond.not, label %._crit_edge, label %.lr.ph, !llvm.loop !43

._crit_edge:                                      ; preds = %.lr.ph, %2
  %.0.lcssa = phi i32 [ 0, %2 ], [ %5, %.lr.ph ]
  ret i32 %.0.lcssa
}